target datalayout = "e-m:e-p270:32:32-p271:32:32-p272:64:64-i64:64-i128:128-f80:128-n8:16:32:64-S128"
target triple = "x86_64-pc-linux-gnu"

%struct.generate_json_data = type { ptr, i64, ptr, i64, ptr }

; Function Attrs: nounwind sspstrong uwtable
define internal i64 @generate_json_try(i64 noundef %0) #0 {
  %2 = alloca i64, align 8
  %3 = alloca ptr, align 8
  store i64 %0, ptr %2, align 8, !tbaa !6
  call void @llvm.lifetime.start.p0(i64 8, ptr %3) #27
  %4 = load i64, ptr %2, align 8, !tbaa !6
  %5 = inttoptr i64 %4 to ptr
  store ptr %5, ptr %3, align 8, !tbaa !58
  %6 = load ptr, ptr %3, align 8, !tbaa !58
  %7 = getelementptr inbounds nuw %struct.generate_json_data, ptr %6, i32 0, i32 4
  %8 = load ptr, ptr %7, align 8, !tbaa !43
  %9 = load ptr, ptr %3, align 8, !tbaa !58
  %10 = getelementptr inbounds nuw %struct.generate_json_data, ptr %9, i32 0, i32 0
  %11 = load ptr, ptr %10, align 8, !tbaa !37
  %12 = load ptr, ptr %3, align 8, !tbaa !58
  %13 = load ptr, ptr %3, align 8, !tbaa !58
  %14 = getelementptr inbounds nuw %struct.generate_json_data, ptr %13, i32 0, i32 2
  %15 = load ptr, ptr %14, align 8, !tbaa !41
  %16 = load ptr, ptr %3, align 8, !tbaa !58
  %17 = getelementptr inbounds nuw %struct.generate_json_data, ptr %16, i32 0, i32 3
  %18 = load i64, ptr %17, align 8, !tbaa !42
  call void %8(ptr noundef %11, ptr noundef %12, ptr noundef %15, i64 noundef %18)
  call void @llvm.lifetime.end.p0(i64 8, ptr %3) #27
  ret i64 4
}