; Function Attrs: nounwind sspstrong uwtable
define internal noundef i64 @generate_json_try(i64 noundef %0) #0 {
  %2 = inttoptr i64 %0 to ptr
  %3 = getelementptr inbounds nuw i8, ptr %2, i64 32
  %4 = load ptr, ptr %3, align 8, !tbaa !55
  %5 = load ptr, ptr %2, align 8, !tbaa !48
  %6 = getelementptr inbounds nuw i8, ptr %2, i64 16
  %7 = load ptr, ptr %6, align 8, !tbaa !53
  %8 = getelementptr inbounds nuw i8, ptr %2, i64 24
  %9 = load i64, ptr %8, align 8, !tbaa !54
  tail call void %4(ptr noundef %5, ptr noundef nonnull %2, ptr noundef %7, i64 noundef %9) #22
  ret i64 4
}